target datalayout = "e-m:e-p270:32:32-p271:32:32-p272:64:64-i64:64-i128:128-f80:128-n8:16:32:64-S128"
target triple = "x86_64-pc-linux-gnu"

%struct.ossl_ex_data_global_st = type { ptr, [18 x %struct.ex_callbacks_st] }
%struct.ex_callbacks_st = type { ptr }
%struct.ex_callback_st = type { i64, ptr, i32, ptr, ptr, ptr }
%struct.crypto_ex_data_st = type { ptr, ptr }

@.str = private unnamed_addr constant [28 x i8] c"../openssl/crypto/ex_data.c\00", align 1
@__func__.get_and_lock = private unnamed_addr constant [13 x i8] c"get_and_lock\00", align 1

; Function Attrs: inlinehint nounwind uwtable
define internal ptr @sk_EX_CALLBACK_value(ptr noundef %0, i32 noundef %1) #3 {
  %3 = alloca ptr, align 8
  %4 = alloca i32, align 4
  store ptr %0, ptr %3, align 8, !tbaa !21
  store i32 %1, ptr %4, align 4, !tbaa !12
  %5 = load ptr, ptr %3, align 8, !tbaa !21
  %6 = load i32, ptr %4, align 4, !tbaa !12
  %7 = call ptr @OPENSSL_sk_value(ptr noundef %5, i32 noundef %6)
  ret ptr %7
}

; Function Attrs: nounwind uwtable
define internal ptr @get_and_lock(ptr noundef %0, i32 noundef %1, i32 noundef %2) #0 {
  %4 = alloca ptr, align 8
  %5 = alloca ptr, align 8
  %6 = alloca i32, align 4
  %7 = alloca i32, align 4
  %8 = alloca ptr, align 8
  %9 = alloca i32, align 4
  store ptr %0, ptr %5, align 8, !tbaa !8
  store i32 %1, ptr %6, align 4, !tbaa !12
  store i32 %2, ptr %7, align 4, !tbaa !12
  call void @llvm.lifetime.start.p0(i64 8, ptr %8) #4
  %10 = load i32, ptr %6, align 4, !tbaa !12
  %11 = icmp slt i32 %10, 0
  br i1 %11, label %15, label %12

12:                                               ; preds = %3
  %13 = load i32, ptr %6, align 4, !tbaa !12
  %14 = icmp sge i32 %13, 18
  br i1 %14, label %15, label %16

15:                                               ; preds = %12, %3
  call void @ERR_new()
  call void @ERR_set_debug(ptr noundef @.str, i32 noundef 37, ptr noundef @__func__.get_and_lock)
  call void (i32, i32, ptr, ...) @ERR_set_error(i32 noundef 15, i32 noundef 524550, ptr noundef null)
  store ptr null, ptr %4, align 8
  store i32 1, ptr %9, align 4
  br label %48

16:                                               ; preds = %12
  %17 = load ptr, ptr %5, align 8, !tbaa !8
  %18 = getelementptr inbounds nuw %struct.ossl_ex_data_global_st, ptr %17, i32 0, i32 0
  %19 = load ptr, ptr %18, align 8, !tbaa !10
  %20 = icmp eq ptr %19, null
  br i1 %20, label %21, label %22

21:                                               ; preds = %16
  store ptr null, ptr %4, align 8
  store i32 1, ptr %9, align 4
  br label %48

22:                                               ; preds = %16
  %23 = load i32, ptr %7, align 4, !tbaa !12
  %24 = icmp ne i32 %23, 0
  br i1 %24, label %25, label %33

25:                                               ; preds = %22
  %26 = load ptr, ptr %5, align 8, !tbaa !8
  %27 = getelementptr inbounds nuw %struct.ossl_ex_data_global_st, ptr %26, i32 0, i32 0
  %28 = load ptr, ptr %27, align 8, !tbaa !10
  %29 = call i32 @CRYPTO_THREAD_read_lock(ptr noundef %28)
  %30 = icmp ne i32 %29, 0
  br i1 %30, label %32, label %31

31:                                               ; preds = %25
  store ptr null, ptr %4, align 8
  store i32 1, ptr %9, align 4
  br label %48

32:                                               ; preds = %25
  br label %41

33:                                               ; preds = %22
  %34 = load ptr, ptr %5, align 8, !tbaa !8
  %35 = getelementptr inbounds nuw %struct.ossl_ex_data_global_st, ptr %34, i32 0, i32 0
  %36 = load ptr, ptr %35, align 8, !tbaa !10
  %37 = call i32 @CRYPTO_THREAD_write_lock(ptr noundef %36)
  %38 = icmp ne i32 %37, 0
  br i1 %38, label %40, label %39

39:                                               ; preds = %33
  store ptr null, ptr %4, align 8
  store i32 1, ptr %9, align 4
  br label %48

40:                                               ; preds = %33
  br label %41

41:                                               ; preds = %40, %32
  %42 = load ptr, ptr %5, align 8, !tbaa !8
  %43 = getelementptr inbounds nuw %struct.ossl_ex_data_global_st, ptr %42, i32 0, i32 1
  %44 = load i32, ptr %6, align 4, !tbaa !12
  %45 = sext i32 %44 to i64
  %46 = getelementptr inbounds [18 x %struct.ex_callbacks_st], ptr %43, i64 0, i64 %45
  store ptr %46, ptr %8, align 8, !tbaa !14
  %47 = load ptr, ptr %8, align 8, !tbaa !14
  store ptr %47, ptr %4, align 8
  store i32 1, ptr %9, align 4
  br label %48

48:                                               ; preds = %41, %39, %31, %21, %15
  call void @llvm.lifetime.end.p0(i64 8, ptr %8) #4
  %49 = load ptr, ptr %4, align 8
  ret ptr %49
}

; Function Attrs: nounwind uwtable
define i32 @ossl_crypto_alloc_ex_data_intern(i32 noundef %0, ptr noundef %1, ptr noundef %2, i32 noundef %3) #0 {
  %5 = alloca i32, align 4
  %6 = alloca i32, align 4
  %7 = alloca ptr, align 8
  %8 = alloca ptr, align 8
  %9 = alloca i32, align 4
  %10 = alloca ptr, align 8
  %11 = alloca ptr, align 8
  %12 = alloca ptr, align 8
  %13 = alloca i32, align 4
  store i32 %0, ptr %6, align 4, !tbaa !12
  store ptr %1, ptr %7, align 8, !tbaa !22
  store ptr %2, ptr %8, align 8, !tbaa !30
  store i32 %3, ptr %9, align 4, !tbaa !12
  call void @llvm.lifetime.start.p0(i64 8, ptr %10) #4
  call void @llvm.lifetime.start.p0(i64 8, ptr %11) #4
  call void @llvm.lifetime.start.p0(i64 8, ptr %12) #4
  %14 = load ptr, ptr %8, align 8, !tbaa !30
  %15 = getelementptr inbounds nuw %struct.crypto_ex_data_st, ptr %14, i32 0, i32 0
  %16 = load ptr, ptr %15, align 8, !tbaa !38
  %17 = call ptr @ossl_lib_ctx_get_ex_data_global(ptr noundef %16)
  store ptr %17, ptr %12, align 8, !tbaa !8
  %18 = load ptr, ptr %12, align 8, !tbaa !8
  %19 = icmp eq ptr %18, null
  br i1 %19, label %20, label %21

20:                                               ; preds = %4
  store i32 0, ptr %5, align 4
  store i32 1, ptr %13, align 4
  br label %56

21:                                               ; preds = %4
  %22 = load ptr, ptr %12, align 8, !tbaa !8
  %23 = load i32, ptr %6, align 4, !tbaa !12
  %24 = call ptr @get_and_lock(ptr noundef %22, i32 noundef %23, i32 noundef 1)
  store ptr %24, ptr %11, align 8, !tbaa !14
  %25 = load ptr, ptr %11, align 8, !tbaa !14
  %26 = icmp eq ptr %25, null
  br i1 %26, label %27, label %28

27:                                               ; preds = %21
  store i32 0, ptr %5, align 4
  store i32 1, ptr %13, align 4
  br label %56

28:                                               ; preds = %21
  %29 = load ptr, ptr %11, align 8, !tbaa !14
  %30 = getelementptr inbounds nuw %struct.ex_callbacks_st, ptr %29, i32 0, i32 0
  %31 = load ptr, ptr %30, align 8, !tbaa !16
  %32 = load i32, ptr %9, align 4, !tbaa !12
  %33 = call ptr @sk_EX_CALLBACK_value(ptr noundef %31, i32 noundef %32)
  store ptr %33, ptr %10, align 8, !tbaa !23
  %34 = load ptr, ptr %12, align 8, !tbaa !8
  %35 = getelementptr inbounds nuw %struct.ossl_ex_data_global_st, ptr %34, i32 0, i32 0
  %36 = load ptr, ptr %35, align 8, !tbaa !10
  %37 = call i32 @CRYPTO_THREAD_unlock(ptr noundef %36)
  %38 = load ptr, ptr %10, align 8, !tbaa !23
  %39 = getelementptr inbounds nuw %struct.ex_callback_st, ptr %38, i32 0, i32 3
  %40 = load ptr, ptr %39, align 8, !tbaa !25
  %41 = icmp eq ptr %40, null
  br i1 %41, label %42, label %43

42:                                               ; preds = %28
  store i32 0, ptr %5, align 4
  store i32 1, ptr %13, align 4
  br label %56

43:                                               ; preds = %28
  %44 = load ptr, ptr %10, align 8, !tbaa !23
  %45 = getelementptr inbounds nuw %struct.ex_callback_st, ptr %44, i32 0, i32 3
  %46 = load ptr, ptr %45, align 8, !tbaa !25
  %47 = load ptr, ptr %7, align 8, !tbaa !22
  %48 = load ptr, ptr %8, align 8, !tbaa !30
  %49 = load i32, ptr %9, align 4, !tbaa !12
  %50 = load ptr, ptr %10, align 8, !tbaa !23
  %51 = getelementptr inbounds nuw %struct.ex_callback_st, ptr %50, i32 0, i32 0
  %52 = load i64, ptr %51, align 8, !tbaa !33
  %53 = load ptr, ptr %10, align 8, !tbaa !23
  %54 = getelementptr inbounds nuw %struct.ex_callback_st, ptr %53, i32 0, i32 1
  %55 = load ptr, ptr %54, align 8, !tbaa !34
  call void %46(ptr noundef %47, ptr noundef null, ptr noundef %48, i32 noundef %49, i64 noundef %52, ptr noundef %55)
  store i32 1, ptr %5, align 4
  store i32 1, ptr %13, align 4
  br label %56

56:                                               ; preds = %43, %42, %27, %20
  call void @llvm.lifetime.end.p0(i64 8, ptr %12) #4
  call void @llvm.lifetime.end.p0(i64 8, ptr %11) #4
  call void @llvm.lifetime.end.p0(i64 8, ptr %10) #4
  %57 = load i32, ptr %5, align 4
  ret i32 %57
}