; Function Attrs: nounwind uwtable
define range(i32 0, 2) i32 @ossl_crypto_alloc_ex_data_intern(i32 noundef %0, ptr noundef %1, ptr noundef %2, i32 noundef %3) local_unnamed_addr #0 {
  %5 = load ptr, ptr %2, align 8, !tbaa !22
  %6 = tail call ptr @ossl_lib_ctx_get_ex_data_global(ptr noundef %5) #9
  %7 = icmp eq ptr %6, null
  br i1 %7, label %get_and_lock.exit.thread, label %8

8:                                                ; preds = %4
  %or.cond.i = icmp ugt i32 %0, 17
  br i1 %or.cond.i, label %9, label %10

9:                                                ; preds = %8
  tail call void @ERR_new() #9
  tail call void @ERR_set_debug(ptr noundef nonnull @.str, i32 noundef 37, ptr noundef nonnull @__func__.get_and_lock) #9
  tail call void (i32, i32, ptr, ...) @ERR_set_error(i32 noundef 15, i32 noundef 524550, ptr noundef null) #9
  br label %get_and_lock.exit.thread

10:                                               ; preds = %8
  %11 = load ptr, ptr %6, align 8, !tbaa !3
  %12 = icmp eq ptr %11, null
  br i1 %12, label %get_and_lock.exit.thread, label %13

13:                                               ; preds = %10
  %14 = tail call i32 @CRYPTO_THREAD_read_lock(ptr noundef nonnull %11) #9
  %.not13.i = icmp eq i32 %14, 0
  br i1 %.not13.i, label %get_and_lock.exit.thread, label %15

15:                                               ; preds = %13
  %16 = getelementptr inbounds nuw i8, ptr %6, i64 8
  %17 = zext nneg i32 %0 to i64
  %18 = getelementptr inbounds nuw [18 x %struct.ex_callbacks_st], ptr %16, i64 0, i64 %17
  %19 = load ptr, ptr %18, align 8, !tbaa !8
  %20 = tail call ptr @OPENSSL_sk_value(ptr noundef %19, i32 noundef %3) #9
  %21 = load ptr, ptr %6, align 8, !tbaa !3
  %22 = tail call i32 @CRYPTO_THREAD_unlock(ptr noundef %21) #9
  %23 = getelementptr inbounds nuw i8, ptr %20, i64 24
  %24 = load ptr, ptr %23, align 8, !tbaa !13
  %25 = icmp eq ptr %24, null
  br i1 %25, label %get_and_lock.exit.thread, label %26

26:                                               ; preds = %15
  %27 = load i64, ptr %20, align 8, !tbaa !19
  %28 = getelementptr inbounds nuw i8, ptr %20, i64 8
  %29 = load ptr, ptr %28, align 8, !tbaa !20
  tail call void %24(ptr noundef %1, ptr noundef null, ptr noundef nonnull %2, i32 noundef %3, i64 noundef %27, ptr noundef %29) #9
  br label %get_and_lock.exit.thread

get_and_lock.exit.thread:                         ; preds = %13, %10, %9, %15, %4, %26
  %.0 = phi i32 [ 1, %26 ], [ 0, %4 ], [ 0, %15 ], [ 0, %9 ], [ 0, %10 ], [ 0, %13 ]
  ret i32 %.0
}